target datalayout = "e-m:e-p270:32:32-p271:32:32-p272:64:64-i64:64-i128:128-f80:128-n8:16:32:64-S128"
target triple = "x86_64-pc-linux-gnu"

%struct.saucy = type { i32, ptr, ptr, ptr, ptr, %struct.coloring, %struct.coloring, ptr, ptr, ptr, ptr, ptr, i32, i32, ptr, i32, ptr, ptr, ptr, ptr, ptr, ptr, ptr, i32, i32, ptr, i32, ptr, i32, i32, ptr, ptr, ptr, ptr, ptr, ptr, ptr, ptr, ptr, ptr, i32, ptr, ptr, ptr, i32, ptr, i32, ptr, ptr, ptr, ptr, i32, ptr, ptr, i32, ptr, ptr, ptr, ptr, ptr, ptr, ptr, ptr, ptr, ptr, ptr, ptr, ptr, ptr, ptr, ptr, ptr, ptr, ptr, ptr, ptr, ptr, double, i32, i32, i32, ptr, ptr, ptr, ptr }
%struct.coloring = type { ptr, ptr, ptr, ptr }

; Function Attrs: nounwind uwtable
define internal ptr @zeros(i32 noundef %0) #0 {
  %2 = alloca i32, align 4
  store i32 %0, ptr %2, align 4
  %3 = load i32, ptr %2, align 4
  %4 = sext i32 %3 to i64
  %5 = call noalias ptr @calloc(i64 noundef %4, i64 noundef 4) #12
  ret ptr %5
}

; Function Attrs: nounwind uwtable
define internal i32 @select_smallest_max_connected_cell(ptr noundef %0, i32 noundef %1, i32 noundef %2) #0 {
  %4 = alloca ptr, align 8
  %5 = alloca i32, align 4
  %6 = alloca i32, align 4
  %7 = alloca i32, align 4
  %8 = alloca i32, align 4
  %9 = alloca i32, align 4
  %10 = alloca i32, align 4
  %11 = alloca ptr, align 8
  %12 = alloca i32, align 4
  %13 = alloca i32, align 4
  store ptr %0, ptr %4, align 8
  store i32 %1, ptr %5, align 4
  store i32 %2, ptr %6, align 4
  store i32 -1, ptr %7, align 4
  %14 = load ptr, ptr %4, align 8
  %15 = getelementptr inbounds %struct.saucy, ptr %14, i32 0, i32 0
  %16 = load i32, ptr %15, align 8
  store i32 %16, ptr %9, align 4
  store i32 -1, ptr %10, align 4
  %17 = load ptr, ptr %4, align 8
  %18 = getelementptr inbounds %struct.saucy, ptr %17, i32 0, i32 0
  %19 = load i32, ptr %18, align 8
  %20 = call ptr @zeros(i32 noundef %19)
  store ptr %20, ptr %11, align 8
  %21 = load i32, ptr %5, align 4
  store i32 %21, ptr %8, align 4
  br label %22

22:                                               ; preds = %33, %3
  %23 = load ptr, ptr %4, align 8
  %24 = getelementptr inbounds %struct.saucy, ptr %23, i32 0, i32 5
  %25 = getelementptr inbounds %struct.coloring, ptr %24, i32 0, i32 3
  %26 = load ptr, ptr %25, align 8
  %27 = load i32, ptr %8, align 4
  %28 = sext i32 %27 to i64
  %29 = getelementptr inbounds i32, ptr %26, i64 %28
  %30 = load i32, ptr %29, align 4
  %31 = icmp ne i32 %30, 0
  %32 = xor i1 %31, true
  br i1 %32, label %33, label %36

33:                                               ; preds = %22
  %34 = load i32, ptr %8, align 4
  %35 = add nsw i32 %34, 1
  store i32 %35, ptr %8, align 4
  br label %22, !llvm.loop !127

36:                                               ; preds = %22
  br label %37

37:                                               ; preds = %189, %36
  %38 = load i32, ptr %8, align 4
  %39 = load i32, ptr %6, align 4
  %40 = icmp slt i32 %38, %39
  br i1 %40, label %41, label %197

41:                                               ; preds = %37
  %42 = load ptr, ptr %4, align 8
  %43 = getelementptr inbounds %struct.saucy, ptr %42, i32 0, i32 5
  %44 = getelementptr inbounds %struct.coloring, ptr %43, i32 0, i32 3
  %45 = load ptr, ptr %44, align 8
  %46 = load i32, ptr %8, align 4
  %47 = sext i32 %46 to i64
  %48 = getelementptr inbounds i32, ptr %45, i64 %47
  %49 = load i32, ptr %48, align 4
  %50 = load i32, ptr %9, align 4
  %51 = icmp sle i32 %49, %50
  br i1 %51, label %52, label %189

52:                                               ; preds = %41
  store i32 0, ptr %13, align 4
  %53 = load ptr, ptr %4, align 8
  %54 = getelementptr inbounds %struct.saucy, ptr %53, i32 0, i32 63
  %55 = load ptr, ptr %54, align 8
  %56 = load ptr, ptr %4, align 8
  %57 = getelementptr inbounds %struct.saucy, ptr %56, i32 0, i32 5
  %58 = getelementptr inbounds %struct.coloring, ptr %57, i32 0, i32 0
  %59 = load ptr, ptr %58, align 8
  %60 = load i32, ptr %8, align 4
  %61 = sext i32 %60 to i64
  %62 = getelementptr inbounds i32, ptr %59, i64 %61
  %63 = load i32, ptr %62, align 4
  %64 = sext i32 %63 to i64
  %65 = getelementptr inbounds i32, ptr %55, i64 %64
  %66 = load i32, ptr %65, align 4
  store i32 %66, ptr %12, align 4
  br label %67

67:                                               ; preds = %112, %52
  %68 = load i32, ptr %12, align 4
  %69 = load ptr, ptr %4, align 8
  %70 = getelementptr inbounds %struct.saucy, ptr %69, i32 0, i32 63
  %71 = load ptr, ptr %70, align 8
  %72 = load ptr, ptr %4, align 8
  %73 = getelementptr inbounds %struct.saucy, ptr %72, i32 0, i32 5
  %74 = getelementptr inbounds %struct.coloring, ptr %73, i32 0, i32 0
  %75 = load ptr, ptr %74, align 8
  %76 = load i32, ptr %8, align 4
  %77 = sext i32 %76 to i64
  %78 = getelementptr inbounds i32, ptr %75, i64 %77
  %79 = load i32, ptr %78, align 4
  %80 = add nsw i32 %79, 1
  %81 = sext i32 %80 to i64
  %82 = getelementptr inbounds i32, ptr %71, i64 %81
  %83 = load i32, ptr %82, align 4
  %84 = icmp slt i32 %68, %83
  br i1 %84, label %85, label %115

85:                                               ; preds = %67
  %86 = load ptr, ptr %11, align 8
  %87 = load ptr, ptr %4, align 8
  %88 = getelementptr inbounds %struct.saucy, ptr %87, i32 0, i32 64
  %89 = load ptr, ptr %88, align 8
  %90 = load i32, ptr %12, align 4
  %91 = sext i32 %90 to i64
  %92 = getelementptr inbounds i32, ptr %89, i64 %91
  %93 = load i32, ptr %92, align 4
  %94 = sext i32 %93 to i64
  %95 = getelementptr inbounds i32, ptr %86, i64 %94
  %96 = load i32, ptr %95, align 4
  %97 = icmp ne i32 %96, 0
  br i1 %97, label %111, label %98

98:                                               ; preds = %85
  %99 = load i32, ptr %13, align 4
  %100 = add nsw i32 %99, 1
  store i32 %100, ptr %13, align 4
  %101 = load ptr, ptr %11, align 8
  %102 = load ptr, ptr %4, align 8
  %103 = getelementptr inbounds %struct.saucy, ptr %102, i32 0, i32 64
  %104 = load ptr, ptr %103, align 8
  %105 = load i32, ptr %12, align 4
  %106 = sext i32 %105 to i64
  %107 = getelementptr inbounds i32, ptr %104, i64 %106
  %108 = load i32, ptr %107, align 4
  %109 = sext i32 %108 to i64
  %110 = getelementptr inbounds i32, ptr %101, i64 %109
  store i32 1, ptr %110, align 4
  br label %111

111:                                              ; preds = %98, %85
  br label %112

112:                                              ; preds = %111
  %113 = load i32, ptr %12, align 4
  %114 = add nsw i32 %113, 1
  store i32 %114, ptr %12, align 4
  br label %67, !llvm.loop !128

115:                                              ; preds = %67
  %116 = load ptr, ptr %4, align 8
  %117 = getelementptr inbounds %struct.saucy, ptr %116, i32 0, i32 5
  %118 = getelementptr inbounds %struct.coloring, ptr %117, i32 0, i32 3
  %119 = load ptr, ptr %118, align 8
  %120 = load i32, ptr %8, align 4
  %121 = sext i32 %120 to i64
  %122 = getelementptr inbounds i32, ptr %119, i64 %121
  %123 = load i32, ptr %122, align 4
  %124 = load i32, ptr %9, align 4
  %125 = icmp slt i32 %123, %124
  br i1 %125, label %130, label %126

126:                                              ; preds = %115
  %127 = load i32, ptr %13, align 4
  %128 = load i32, ptr %10, align 4
  %129 = icmp sgt i32 %127, %128
  br i1 %129, label %130, label %141

130:                                              ; preds = %126, %115
  %131 = load ptr, ptr %4, align 8
  %132 = getelementptr inbounds %struct.saucy, ptr %131, i32 0, i32 5
  %133 = getelementptr inbounds %struct.coloring, ptr %132, i32 0, i32 3
  %134 = load ptr, ptr %133, align 8
  %135 = load i32, ptr %8, align 4
  %136 = sext i32 %135 to i64
  %137 = getelementptr inbounds i32, ptr %134, i64 %136
  %138 = load i32, ptr %137, align 4
  store i32 %138, ptr %9, align 4
  %139 = load i32, ptr %13, align 4
  store i32 %139, ptr %10, align 4
  %140 = load i32, ptr %8, align 4
  store i32 %140, ptr %7, align 4
  br label %141

141:                                              ; preds = %130, %126
  %142 = load ptr, ptr %4, align 8
  %143 = getelementptr inbounds %struct.saucy, ptr %142, i32 0, i32 63
  %144 = load ptr, ptr %143, align 8
  %145 = load ptr, ptr %4, align 8
  %146 = getelementptr inbounds %struct.saucy, ptr %145, i32 0, i32 5
  %147 = getelementptr inbounds %struct.coloring, ptr %146, i32 0, i32 0
  %148 = load ptr, ptr %147, align 8
  %149 = load i32, ptr %8, align 4
  %150 = sext i32 %149 to i64
  %151 = getelementptr inbounds i32, ptr %148, i64 %150
  %152 = load i32, ptr %151, align 4
  %153 = sext i32 %152 to i64
  %154 = getelementptr inbounds i32, ptr %144, i64 %153
  %155 = load i32, ptr %154, align 4
  store i32 %155, ptr %12, align 4
  br label %156

156:                                              ; preds = %185, %141
  %157 = load i32, ptr %12, align 4
  %158 = load ptr, ptr %4, align 8
  %159 = getelementptr inbounds %struct.saucy, ptr %158, i32 0, i32 63
  %160 = load ptr, ptr %159, align 8
  %161 = load ptr, ptr %4, align 8
  %162 = getelementptr inbounds %struct.saucy, ptr %161, i32 0, i32 5
  %163 = getelementptr inbounds %struct.coloring, ptr %162, i32 0, i32 0
  %164 = load ptr, ptr %163, align 8
  %165 = load i32, ptr %8, align 4
  %166 = sext i32 %165 to i64
  %167 = getelementptr inbounds i32, ptr %164, i64 %166
  %168 = load i32, ptr %167, align 4
  %169 = add nsw i32 %168, 1
  %170 = sext i32 %169 to i64
  %171 = getelementptr inbounds i32, ptr %160, i64 %170
  %172 = load i32, ptr %171, align 4
  %173 = icmp slt i32 %157, %172
  br i1 %173, label %174, label %188

174:                                              ; preds = %156
  %175 = load ptr, ptr %11, align 8
  %176 = load ptr, ptr %4, align 8
  %177 = getelementptr inbounds %struct.saucy, ptr %176, i32 0, i32 64
  %178 = load ptr, ptr %177, align 8
  %179 = load i32, ptr %12, align 4
  %180 = sext i32 %179 to i64
  %181 = getelementptr inbounds i32, ptr %178, i64 %180
  %182 = load i32, ptr %181, align 4
  %183 = sext i32 %182 to i64
  %184 = getelementptr inbounds i32, ptr %175, i64 %183
  store i32 0, ptr %184, align 4
  br label %185

185:                                              ; preds = %174
  %186 = load i32, ptr %12, align 4
  %187 = add nsw i32 %186, 1
  store i32 %187, ptr %12, align 4
  br label %156, !llvm.loop !129

188:                                              ; preds = %156
  br label %189

189:                                              ; preds = %188, %41
  %190 = load ptr, ptr %4, align 8
  %191 = getelementptr inbounds %struct.saucy, ptr %190, i32 0, i32 7
  %192 = load ptr, ptr %191, align 8
  %193 = load i32, ptr %8, align 4
  %194 = sext i32 %193 to i64
  %195 = getelementptr inbounds i32, ptr %192, i64 %194
  %196 = load i32, ptr %195, align 4
  store i32 %196, ptr %8, align 4
  br label %37, !llvm.loop !130

197:                                              ; preds = %37
  %198 = load ptr, ptr %11, align 8
  %199 = icmp ne ptr %198, null
  br i1 %199, label %200, label %202

200:                                              ; preds = %197
  %201 = load ptr, ptr %11, align 8
  call void @free(ptr noundef %201) #10
  store ptr null, ptr %11, align 8
  br label %203

202:                                              ; preds = %197
  br label %203

203:                                              ; preds = %202, %200
  %204 = load i32, ptr %7, align 4
  ret i32 %204
}