; Function Attrs: nounwind memory(readwrite, argmem: read) uwtable
define internal fastcc i32 @select_smallest_max_connected_cell(ptr noundef readonly captures(none) %0, i32 noundef %1, i32 noundef %2) unnamed_addr #13 {
  %4 = load i32, ptr %0, align 8
  %5 = sext i32 %4 to i64
  %6 = tail call noalias noundef ptr @calloc(i64 noundef %5, i64 noundef 4) #25
  %7 = getelementptr inbounds nuw i8, ptr %0, i64 64
  %8 = load ptr, ptr %7, align 8
  %9 = sext i32 %1 to i64
  br label %10

10:                                               ; preds = %10, %3
  %indvars.iv = phi i64 [ %indvars.iv.next, %10 ], [ %9, %3 ]
  %11 = getelementptr inbounds i32, ptr %8, i64 %indvars.iv
  %12 = load i32, ptr %11, align 4
  %.not = icmp eq i32 %12, 0
  %indvars.iv.next = add nsw i64 %indvars.iv, 1
  br i1 %.not, label %10, label %.preheader, !llvm.loop !147

.preheader:                                       ; preds = %10
  %13 = trunc nsw i64 %indvars.iv to i32
  %14 = getelementptr inbounds nuw i8, ptr %0, i64 40
  %15 = icmp sgt i32 %2, %13
  br i1 %15, label %.lr.ph78, label %._crit_edge79

.lr.ph78:                                         ; preds = %.preheader
  %16 = getelementptr inbounds nuw i8, ptr %0, i64 528
  %17 = getelementptr inbounds nuw i8, ptr %0, i64 536
  %18 = getelementptr inbounds nuw i8, ptr %0, i64 104
  %19 = load ptr, ptr %18, align 8
  br label %20

20:                                               ; preds = %.lr.ph78, %.loopexit
  %.05277 = phi i32 [ -1, %.lr.ph78 ], [ %.153, %.loopexit ]
  %.05476 = phi i32 [ %4, %.lr.ph78 ], [ %.155, %.loopexit ]
  %.15875 = phi i32 [ %13, %.lr.ph78 ], [ %58, %.loopexit ]
  %.05974 = phi i32 [ -1, %.lr.ph78 ], [ %.160, %.loopexit ]
  %21 = sext i32 %.15875 to i64
  %22 = getelementptr inbounds i32, ptr %8, i64 %21
  %23 = load i32, ptr %22, align 4
  %.not64 = icmp sgt i32 %23, %.05476
  br i1 %.not64, label %.loopexit, label %24

24:                                               ; preds = %20
  %25 = load ptr, ptr %16, align 8
  %26 = load ptr, ptr %14, align 8
  %27 = getelementptr inbounds i32, ptr %26, i64 %21
  %28 = load i32, ptr %27, align 4
  %29 = sext i32 %28 to i64
  %30 = getelementptr inbounds i32, ptr %25, i64 %29
  %31 = load i32, ptr %30, align 4
  %32 = getelementptr i8, ptr %30, i64 4
  %33 = load i32, ptr %32, align 4
  %34 = icmp slt i32 %31, %33
  br i1 %34, label %.lr.ph, label %._crit_edge.thread

._crit_edge.thread:                               ; preds = %24
  %35 = icmp slt i32 %23, %.05476
  %36 = icmp slt i32 %.05277, 0
  %or.cond91 = select i1 %35, i1 true, i1 %36
  %.26192 = select i1 %or.cond91, i32 %.15875, i32 %.05974
  %.25693 = select i1 %or.cond91, i32 %23, i32 %.05476
  %.294 = select i1 %or.cond91, i32 0, i32 %.05277
  br label %.loopexit

.lr.ph:                                           ; preds = %24
  %37 = load ptr, ptr %17, align 8
  %38 = sext i32 %31 to i64
  %wide.trip.count = sext i32 %33 to i64
  br label %39

39:                                               ; preds = %.lr.ph, %47
  %indvars.iv82 = phi i64 [ %38, %.lr.ph ], [ %indvars.iv.next83, %47 ]
  %.069 = phi i32 [ 0, %.lr.ph ], [ %.1, %47 ]
  %40 = getelementptr inbounds i32, ptr %37, i64 %indvars.iv82
  %41 = load i32, ptr %40, align 4
  %42 = sext i32 %41 to i64
  %43 = getelementptr inbounds i32, ptr %6, i64 %42
  %44 = load i32, ptr %43, align 4
  %.not65 = icmp eq i32 %44, 0
  br i1 %.not65, label %45, label %47

45:                                               ; preds = %39
  %46 = add nsw i32 %.069, 1
  store i32 1, ptr %43, align 4
  br label %47

47:                                               ; preds = %39, %45
  %.1 = phi i32 [ %.069, %39 ], [ %46, %45 ]
  %indvars.iv.next83 = add nsw i64 %indvars.iv82, 1
  %exitcond.not = icmp eq i64 %indvars.iv.next83, %wide.trip.count
  br i1 %exitcond.not, label %._crit_edge, label %39, !llvm.loop !148

._crit_edge:                                      ; preds = %47
  %48 = icmp slt i32 %23, %.05476
  %49 = icmp sgt i32 %.1, %.05277
  %or.cond = select i1 %48, i1 true, i1 %49
  %.261 = select i1 %or.cond, i32 %.15875, i32 %.05974
  %.256 = select i1 %or.cond, i32 %23, i32 %.05476
  %.2 = select i1 %or.cond, i32 %.1, i32 %.05277
  %50 = load ptr, ptr %17, align 8
  %51 = sext i32 %31 to i64
  %wide.trip.count88 = sext i32 %33 to i64
  br label %52

52:                                               ; preds = %._crit_edge, %52
  %indvars.iv85 = phi i64 [ %51, %._crit_edge ], [ %indvars.iv.next86, %52 ]
  %53 = getelementptr inbounds i32, ptr %50, i64 %indvars.iv85
  %54 = load i32, ptr %53, align 4
  %55 = sext i32 %54 to i64
  %56 = getelementptr inbounds i32, ptr %6, i64 %55
  store i32 0, ptr %56, align 4
  %indvars.iv.next86 = add nsw i64 %indvars.iv85, 1
  %exitcond89.not = icmp eq i64 %indvars.iv.next86, %wide.trip.count88
  br i1 %exitcond89.not, label %.loopexit, label %52, !llvm.loop !149

.loopexit:                                        ; preds = %52, %._crit_edge.thread, %20
  %.160 = phi i32 [ %.05974, %20 ], [ %.26192, %._crit_edge.thread ], [ %.261, %52 ]
  %.155 = phi i32 [ %.05476, %20 ], [ %.25693, %._crit_edge.thread ], [ %.256, %52 ]
  %.153 = phi i32 [ %.05277, %20 ], [ %.294, %._crit_edge.thread ], [ %.2, %52 ]
  %57 = getelementptr inbounds i32, ptr %19, i64 %21
  %58 = load i32, ptr %57, align 4
  %59 = icmp slt i32 %58, %2
  br i1 %59, label %20, label %._crit_edge79, !llvm.loop !150

._crit_edge79:                                    ; preds = %.loopexit, %.preheader
  %.059.lcssa = phi i32 [ -1, %.preheader ], [ %.160, %.loopexit ]
  %.not63 = icmp eq ptr %6, null
  br i1 %.not63, label %61, label %60

60:                                               ; preds = %._crit_edge79
  tail call void @free(ptr noundef nonnull %6) #24
  br label %61

61:                                               ; preds = %._crit_edge79, %60
  ret i32 %.059.lcssa
}